; Function Attrs: mustprogress uwtable
define dso_local noundef zeroext i1 @_ZN3dap4json17JsonCppSerializer9serializeERKSt13unordered_mapINSt7__cxx1112basic_stringIcSt11char_traitsIcESaIcEEENS_3anyESt4hashIS8_ESt8equal_toIS8_ESaISt4pairIKS8_S9_EEE(ptr nocapture noundef nonnull readonly align 8 dereferenceable(18) %0, ptr nocapture noundef nonnull readonly align 8 dereferenceable(56) %1) unnamed_addr #0 align 2 personality ptr @__gxx_personality_v0 {
  %3 = alloca %"class.Json::Value", align 8
  %4 = alloca %"struct.dap::json::JsonCppSerializer", align 8
  %5 = getelementptr inbounds i8, ptr %0, i64 8
  %6 = load ptr, ptr %5, align 8
  %7 = tail call noundef zeroext i1 @_ZNK4Json5Value8isObjectEv(ptr noundef nonnull align 8 dereferenceable(40) %6)
  br i1 %7, label %11, label %8

8:                                                ; preds = %2
  call void @_ZN4Json5ValueC1ENS_9ValueTypeE(ptr noundef nonnull align 8 dereferenceable(40) %3, i32 noundef 7)
  %9 = load ptr, ptr %5, align 8
  %10 = call noundef nonnull align 8 dereferenceable(40) ptr @_ZN4Json5ValueaSEOS0_(ptr noundef nonnull align 8 dereferenceable(40) %9, ptr noundef nonnull align 8 dereferenceable(40) %3) #21
  call void @_ZN4Json5ValueD1Ev(ptr noundef nonnull align 8 dereferenceable(40) %3) #21
  br label %11

11:                                               ; preds = %8, %2
  %12 = getelementptr inbounds i8, ptr %1, i64 16
  %13 = getelementptr inbounds i8, ptr %4, i64 8
  %14 = getelementptr inbounds i8, ptr %4, i64 16
  %15 = getelementptr inbounds i8, ptr %4, i64 17
  br label %16

16:                                               ; preds = %_ZN3dap4json17JsonCppSerializerD2Ev.exit, %11
  %.sroa.010.0.in = phi ptr [ %12, %11 ], [ %.sroa.010.0, %_ZN3dap4json17JsonCppSerializerD2Ev.exit ]
  %.sroa.010.0 = load ptr, ptr %.sroa.010.0.in, align 8
  %.not = icmp eq ptr %.sroa.010.0, null
  br i1 %.not, label %32, label %17

17:                                               ; preds = %16
  %18 = getelementptr inbounds i8, ptr %.sroa.010.0, i64 8
  %19 = load ptr, ptr %5, align 8
  %20 = call noundef nonnull align 8 dereferenceable(40) ptr @_ZN4Json5ValueixERKNSt7__cxx1112basic_stringIcSt11char_traitsIcESaIcEEE(ptr noundef nonnull align 8 dereferenceable(40) %19, ptr noundef nonnull align 8 dereferenceable(32) %18)
  store ptr getelementptr inbounds ({ [13 x ptr] }, ptr @_ZTVN3dap4json17JsonCppSerializerE, i64 0, i32 0, i64 2), ptr %4, align 8
  store ptr %20, ptr %13, align 8
  store i8 0, ptr %14, align 8
  store i8 0, ptr %15, align 1
  %21 = getelementptr inbounds i8, ptr %.sroa.010.0, i64 40
  %22 = invoke noundef zeroext i1 @_ZN3dap4json17JsonCppSerializer9serializeERKNS_3anyE(ptr noundef nonnull align 8 dereferenceable(18) %4, ptr noundef nonnull align 8 dereferenceable(56) %21)
          to label %25 unwind label %23

23:                                               ; preds = %17
  %24 = landingpad { ptr, i32 }
          cleanup
  call void @_ZN3dap4json17JsonCppSerializerD2Ev(ptr noundef nonnull align 8 dereferenceable(18) %4) #21
  resume { ptr, i32 } %24

25:                                               ; preds = %17
  store ptr getelementptr inbounds ({ [13 x ptr] }, ptr @_ZTVN3dap4json17JsonCppSerializerE, i64 0, i32 0, i64 2), ptr %4, align 8
  %26 = load i8, ptr %14, align 8
  %27 = and i8 %26, 1
  %.not.i = icmp eq i8 %27, 0
  br i1 %.not.i, label %_ZN3dap4json17JsonCppSerializerD2Ev.exit, label %28

28:                                               ; preds = %25
  %29 = load ptr, ptr %13, align 8
  %30 = icmp eq ptr %29, null
  br i1 %30, label %_ZN3dap4json17JsonCppSerializerD2Ev.exit, label %31

31:                                               ; preds = %28
  call void @_ZN4Json5ValueD1Ev(ptr noundef nonnull align 8 dereferenceable(40) %29) #21
  call void @_ZdlPv(ptr noundef nonnull %29) #20
  br label %_ZN3dap4json17JsonCppSerializerD2Ev.exit

_ZN3dap4json17JsonCppSerializerD2Ev.exit:         ; preds = %25, %28, %31
  br i1 %22, label %16, label %32

32:                                               ; preds = %16, %_ZN3dap4json17JsonCppSerializerD2Ev.exit
  ret i1 %.not
}